(dp1
V505CYIM28339400010
p2
I1
sV300450079912900030
p3
I0
sV300450079621500030
p4
I1
sV505451069373500010
p5
I1
sV505451069239800020
p6
I1
sV505451066782100010
p7
I1
sV505451067488600010
p8
I1
sV300450079284600470
p9
I0
sV505450051423400040
p10
I1
sV300450080826200010
p11
I0
sV300450079650300010
p12
I0
sV505450051333700010
p13
I1
sV300450079611700230
p14
I0
sV300450079371300020
p15
I1
sV300450079420100010
p16
I1
sV505451068147600010
p17
I1
sV300450078763800010
p18
I0
sV300450078138300010
p19
I0
sV300450077358600010
p20
I0
sV300450080149100020
p21
I0
sV505450052147800080
p22
I1
sV300450080983100260
p23
I0
sV505451068879300030
p24
I1
sV300450080236800110
p25
I1
sV300450079636300040
p26
I0
sV300450079103800030
p27
I1
sV505450051648400050
p28
I0
sV505451066938300040
p29
I1
sV505451067878800050
p30
I0
sV300450079559800050
p31
I0
sV300450080211600050
p32
I1
sV505450051603600020
p33
I1
sV300450077172100040
p34
I1
sV505451069140700010
p35
I1
sV505CYIM28998100010
p36
I1
sV300450080236800260
p37
I1
sV300450080488400070
p38
I1
sV505451068051600010
p39
I1
sV300450081342500150
p40
I1
sV505451068013800010
p41
I1
sV505453003160300130
p42
I1
sV505453003254100030
p43
I1
sV300450080310900020
p44
I0
sV505451067184300010
p45
I1
sV505451067569600010
p46
I0
sV505451066653100010
p47
I1
sV300450079401900010
p48
I0
sV505453003295400040
p49
I1
sV300450080919600070
p50
I0
sV300450080551100020
p51
I1
sV300450076908100090
p52
I1
sV300450079728500020
p53
I0
sV505451067741900070
p54
I0
sV300450077803500010
p55
I0
sV505451068406600040
p56
I1
sV300450079290800030
p57
I0
sV505451066721100010
p58
I1
sV505451067497000010
p59
I0
sV300450078272800010
p60
I1
sV300450076442100140
p61
I1
sV300450078665200010
p62
I1
sV300450077011200010
p63
I0
sV505453003193700310
p64
I1
sV300450077892200010
p65
I0
sV300450077211000010
p66
I1
sV300450081357500020
p67
I0
sV300450078367800010
p68
I0
sV300450079500000010
p69
I0
sV505451067850600040
p70
I1
sV300450078236300170
p71
I1
sV300450080746100010
p72
I1
sV505451067808900010
p73
I1
sV300450078870400040
p74
I0
sV300450079246000010
p75
I0
sV300450081345200340
p76
I0
sV300450078875100030
p77
I1
sV505450051983900040
p78
I1
sV505453003220300080
p79
I1
sV300450081155500080
p80
I1
sV300450077480800020
p81
I0
sV300450079426100020
p82
I1
sV300450081592100010
p83
I1
sV300450078598000010
p84
I0
sV505455000093400120
p85
I0
sV505450051794400030
p86
I0
sV300450078988300090
p87
I0
sV505451067466600030
p88
I0
sV505451068328400020
p89
I0
sV300450077650700120
p90
I1
sV300450077745500030
p91
I1
sV300450077739400030
p92
I1
sV505451067540000010
p93
I1
sV505451068656200020
p94
I1
sV300450080152500010
p95
I1
sV505450052021200110
p96
I0
sV505450051786500010
p97
I0
sV505453003237800050
p98
I0
sV300450077376800010
p99
I1
sV300450078017501190
p100
I1
sV300450080167500240
p101
I0
sV505451067351000870
p102
I1
sV505450051764000010
p103
I1
sV300450078057900010
p104
I0
sV505453003267300010
p105
I1
sV300450077538000010
p106
I1
sV300450079102800010
p107
I1
sV300450079812400040
p108
I1
sV505451068091800010
p109
I0
sV300450078076600020
p110
I0
sV300450079674600310
p111
I0
sV300450080645400060
p112
I1
sV300450079739600010
p113
I1
sV300450080189000030
p114
I0
sV505450051782200020
p115
I0
sV300450081010400010
p116
I1
sV505451069264600050
p117
I0
sV300450080635500010
p118
I0
sV505450051854600010
p119
I0
sV505450051685800020
p120
I1
sV505451069087800050
p121
I1
sV300450077583300010
p122
I0
sV300450078867200050
p123
I1
sV300450080737500150
p124
I1
sV300450081384100020
p125
I1
sV300450079067000010
p126
I0
sV300450081248400030
p127
I0
sV300450077650700110
p128
I1
sV300450078086200030
p129
I1
sV300450079912600030
p130
I0
sV300450079293000070
p131
I1
sV505451068231600010
p132
I0
sV300450081141400010
p133
I1
sV505450051968700010
p134
I1
sV505451067321200010
p135
I1
sV505451068431100010
p136
I0
sV505450051412500010
p137
I0
sV300450076388900020
p138
I0
sV300450080218600020
p139
I0
sV505451069199900010
p140
I0
sV300450080102200060
p141
I0
sV300450076809100010
p142
I0
sV505451068634000010
p143
I1
sV300450078019900310
p144
I0
sV505451068823800010
p145
I0
sV300450078098800140
p146
I1
sV300450080896400020
p147
I1
sV505451068012100010
p148
I1
sV505451068289200120
p149
I1
sV300450080036400330
p150
I1
sV300450081361100030
p151
I0
sV505451068210700010
p152
I1
sV505451067901100010
p153
I1
sV505450051588500040
p154
I0
sV505450051089700060
p155
I1
sV300450076107700010
p156
I1
sV505451066628500010
p157
I1
sV505453003243500010
p158
I0
sV300450082115800200
p159
I1
sV300450078490400020
p160
I1
sV300450081492100150
p161
I0
sV300450078019900300
p162
I1
sV300450081354000020
p163
I0
s.